target datalayout = "e-m:e-p270:32:32-p271:32:32-p272:64:64-i64:64-i128:128-f80:128-n8:16:32:64-S128"
target triple = "x86_64-pc-linux-gnu"

%struct.z_stream_s = type { ptr, i32, i64, ptr, i32, i64, ptr, ptr, ptr, ptr, ptr, i32, i64, i64 }
%struct.GVJ_s = type { ptr, ptr, ptr, ptr, ptr, ptr, i32, ptr, ptr, ptr, ptr, i64, i64, ptr, i32, %struct.gvplugin_active_render_s, %struct.gvplugin_active_device_s, %struct.gvplugin_active_loadimage_t, ptr, %struct.pointf_s, i8, ptr, i32, ptr, i8, ptr, i32, i32, i32, %struct.point, %struct.point, %struct.point, %struct.point, %struct.point, i32, %struct.boxf, %struct.pointf_s, %struct.boxf, %struct.boxf, %struct.pointf_s, %struct.pointf_s, double, i32, %struct.pointf_s, %struct.boxf, %struct.pointf_s, %struct.pointf_s, i32, i32, %struct.box, %struct.box, %struct.pointf_s, %struct.pointf_s, %struct.pointf_s, i8, i8, i8, i8, i8, i8, %struct.pointf_s, %struct.pointf_s, ptr, ptr, ptr, ptr, ptr, ptr, i64, ptr }
%struct.gvplugin_active_render_s = type { ptr, i32, ptr, ptr }
%struct.gvplugin_active_device_s = type { ptr, i32, ptr, ptr }
%struct.gvplugin_active_loadimage_t = type { ptr, i32, ptr }
%struct.point = type { i32, i32 }
%struct.boxf = type { %struct.pointf_s, %struct.pointf_s }
%struct.box = type { %struct.point, %struct.point }
%struct.pointf_s = type { double, double }
%struct.GVCOMMON_s = type { ptr, ptr, i32, i8, i8, ptr, ptr, ptr, i32, ptr, i32 }

@z_strm = internal global %struct.z_stream_s zeroinitializer, align 8
@crc = internal global i64 0, align 8
@dfallocated = internal global i32 0, align 4
@df = internal global ptr null, align 8
@.str.4 = private unnamed_addr constant [27 x i8] c"memory allocation failure\0A\00", align 1
@.str.5 = private unnamed_addr constant [22 x i8] c"deflation problem %d\0A\00", align 1
@.str.6 = private unnamed_addr constant [25 x i8] c"gvwrite_no_z problem %d\0A\00", align 1

; Function Attrs: nounwind uwtable
define i64 @gvwrite(ptr noundef %0, ptr noundef %1, i64 noundef %2) #0 {
  %4 = alloca i64, align 8
  %5 = alloca ptr, align 8
  %6 = alloca ptr, align 8
  %7 = alloca i64, align 8
  %8 = alloca i64, align 8
  %9 = alloca i64, align 8
  %10 = alloca i32, align 4
  %11 = alloca ptr, align 8
  %12 = alloca i64, align 8
  %13 = alloca i64, align 8
  %14 = alloca i32, align 4
  %15 = alloca i32, align 4
  store ptr %0, ptr %5, align 8, !tbaa !3
  store ptr %1, ptr %6, align 8, !tbaa !73
  store i64 %2, ptr %7, align 8, !tbaa !71
  call void @llvm.lifetime.start.p0(i64 8, ptr %8) #14
  call void @llvm.lifetime.start.p0(i64 8, ptr %9) #14
  %16 = load i64, ptr %7, align 8, !tbaa !71
  %17 = icmp ne i64 %16, 0
  br i1 %17, label %18, label %21

18:                                               ; preds = %3
  %19 = load ptr, ptr %6, align 8, !tbaa !73
  %20 = icmp ne ptr %19, null
  br i1 %20, label %22, label %21

21:                                               ; preds = %18, %3
  store i64 0, ptr %4, align 8
  store i32 1, ptr %10, align 4
  br label %160

22:                                               ; preds = %18
  %23 = load ptr, ptr %5, align 8, !tbaa !3
  %24 = getelementptr inbounds nuw %struct.GVJ_s, ptr %23, i32 0, i32 26
  %25 = load i32, ptr %24, align 8, !tbaa !60
  %26 = and i32 %25, 1024
  %27 = icmp ne i32 %26, 0
  br i1 %27, label %28, label %142

28:                                               ; preds = %22
  call void @llvm.lifetime.start.p0(i64 8, ptr %11) #14
  store ptr @z_strm, ptr %11, align 8, !tbaa !61
  call void @llvm.lifetime.start.p0(i64 8, ptr %12) #14
  %29 = load ptr, ptr %11, align 8, !tbaa !61
  %30 = load i64, ptr %7, align 8, !tbaa !71
  %31 = call i64 @deflateBound(ptr noundef %29, i64 noundef %30)
  store i64 %31, ptr %12, align 8, !tbaa !71
  %32 = load i32, ptr @dfallocated, align 4, !tbaa !58
  %33 = zext i32 %32 to i64
  %34 = load i64, ptr %12, align 8, !tbaa !71
  %35 = icmp ult i64 %33, %34
  br i1 %35, label %36, label %59

36:                                               ; preds = %28
  %37 = load i64, ptr %12, align 8, !tbaa !71
  %38 = icmp ugt i64 %37, 4294967294
  br i1 %38, label %39, label %40

39:                                               ; preds = %36
  br label %44

40:                                               ; preds = %36
  %41 = load i64, ptr %12, align 8, !tbaa !71
  %42 = trunc i64 %41 to i32
  %43 = add i32 %42, 1
  br label %44

44:                                               ; preds = %40, %39
  %45 = phi i32 [ -1, %39 ], [ %43, %40 ]
  store i32 %45, ptr @dfallocated, align 4, !tbaa !58
  %46 = load ptr, ptr @df, align 8, !tbaa !73
  %47 = load i32, ptr @dfallocated, align 4, !tbaa !58
  %48 = zext i32 %47 to i64
  %49 = call ptr @realloc(ptr noundef %46, i64 noundef %48) #17
  store ptr %49, ptr @df, align 8, !tbaa !73
  %50 = load ptr, ptr @df, align 8, !tbaa !73
  %51 = icmp ne ptr %50, null
  br i1 %51, label %58, label %52

52:                                               ; preds = %44
  %53 = load ptr, ptr %5, align 8, !tbaa !3
  %54 = getelementptr inbounds nuw %struct.GVJ_s, ptr %53, i32 0, i32 3
  %55 = load ptr, ptr %54, align 8, !tbaa !56
  %56 = getelementptr inbounds nuw %struct.GVCOMMON_s, ptr %55, i32 0, i32 5
  %57 = load ptr, ptr %56, align 8, !tbaa !57
  call void (ptr, ...) %57(ptr noundef @.str.4)
  call void @graphviz_exit(i32 noundef 1) #18
  unreachable

58:                                               ; preds = %44
  br label %59

59:                                               ; preds = %58, %28
  %60 = load i64, ptr @crc, align 8, !tbaa !71
  %61 = load ptr, ptr %6, align 8, !tbaa !73
  %62 = load i64, ptr %7, align 8, !tbaa !71
  %63 = call i64 @crc32_z(i64 noundef %60, ptr noundef %61, i64 noundef %62)
  store i64 %63, ptr @crc, align 8, !tbaa !71
  call void @llvm.lifetime.start.p0(i64 8, ptr %13) #14
  store i64 0, ptr %13, align 8, !tbaa !71
  br label %64

64:                                               ; preds = %132, %59
  %65 = load i64, ptr %13, align 8, !tbaa !71
  %66 = load i64, ptr %7, align 8, !tbaa !71
  %67 = icmp ult i64 %65, %66
  br i1 %67, label %69, label %68

68:                                               ; preds = %64
  store i32 2, ptr %10, align 4
  call void @llvm.lifetime.end.p0(i64 8, ptr %13) #14
  br label %141

69:                                               ; preds = %64
  %70 = load ptr, ptr %6, align 8, !tbaa !73
  %71 = load i64, ptr %13, align 8, !tbaa !71
  %72 = getelementptr inbounds nuw i8, ptr %70, i64 %71
  %73 = load ptr, ptr %11, align 8, !tbaa !61
  %74 = getelementptr inbounds nuw %struct.z_stream_s, ptr %73, i32 0, i32 0
  store ptr %72, ptr %74, align 8, !tbaa !68
  call void @llvm.lifetime.start.p0(i64 4, ptr %14) #14
  %75 = load i64, ptr %7, align 8, !tbaa !71
  %76 = load i64, ptr %13, align 8, !tbaa !71
  %77 = sub i64 %75, %76
  %78 = icmp ugt i64 %77, 4294967295
  br i1 %78, label %79, label %80

79:                                               ; preds = %69
  br label %85

80:                                               ; preds = %69
  %81 = load i64, ptr %7, align 8, !tbaa !71
  %82 = load i64, ptr %13, align 8, !tbaa !71
  %83 = sub i64 %81, %82
  %84 = trunc i64 %83 to i32
  br label %85

85:                                               ; preds = %80, %79
  %86 = phi i32 [ -1, %79 ], [ %84, %80 ]
  store i32 %86, ptr %14, align 4, !tbaa !58
  %87 = load i32, ptr %14, align 4, !tbaa !58
  %88 = load ptr, ptr %11, align 8, !tbaa !61
  %89 = getelementptr inbounds nuw %struct.z_stream_s, ptr %88, i32 0, i32 1
  store i32 %87, ptr %89, align 8, !tbaa !70
  %90 = load ptr, ptr @df, align 8, !tbaa !73
  %91 = load ptr, ptr %11, align 8, !tbaa !61
  %92 = getelementptr inbounds nuw %struct.z_stream_s, ptr %91, i32 0, i32 3
  store ptr %90, ptr %92, align 8, !tbaa !69
  %93 = load i32, ptr @dfallocated, align 4, !tbaa !58
  %94 = load ptr, ptr %11, align 8, !tbaa !61
  %95 = getelementptr inbounds nuw %struct.z_stream_s, ptr %94, i32 0, i32 4
  store i32 %93, ptr %95, align 8, !tbaa !81
  call void @llvm.lifetime.start.p0(i64 4, ptr %15) #14
  %96 = load ptr, ptr %11, align 8, !tbaa !61
  %97 = call i32 @deflate(ptr noundef %96, i32 noundef 0)
  store i32 %97, ptr %15, align 4, !tbaa !58
  %98 = load i32, ptr %15, align 4, !tbaa !58
  %99 = icmp ne i32 %98, 0
  br i1 %99, label %100, label %107

100:                                              ; preds = %85
  %101 = load ptr, ptr %5, align 8, !tbaa !3
  %102 = getelementptr inbounds nuw %struct.GVJ_s, ptr %101, i32 0, i32 3
  %103 = load ptr, ptr %102, align 8, !tbaa !56
  %104 = getelementptr inbounds nuw %struct.GVCOMMON_s, ptr %103, i32 0, i32 5
  %105 = load ptr, ptr %104, align 8, !tbaa !57
  %106 = load i32, ptr %15, align 4, !tbaa !58
  call void (ptr, ...) %105(ptr noundef @.str.5, i32 noundef %106)
  call void @graphviz_exit(i32 noundef 1) #18
  unreachable

107:                                              ; preds = %85
  %108 = load ptr, ptr %11, align 8, !tbaa !61
  %109 = getelementptr inbounds nuw %struct.z_stream_s, ptr %108, i32 0, i32 3
  %110 = load ptr, ptr %109, align 8, !tbaa !69
  %111 = load ptr, ptr @df, align 8, !tbaa !73
  %112 = ptrtoint ptr %110 to i64
  %113 = ptrtoint ptr %111 to i64
  %114 = sub i64 %112, %113
  store i64 %114, ptr %9, align 8, !tbaa !71
  %115 = icmp ne i64 %114, 0
  br i1 %115, label %116, label %132

116:                                              ; preds = %107
  %117 = load ptr, ptr %5, align 8, !tbaa !3
  %118 = load ptr, ptr @df, align 8, !tbaa !73
  %119 = load i64, ptr %9, align 8, !tbaa !71
  %120 = call i64 @gvwrite_no_z(ptr noundef %117, ptr noundef %118, i64 noundef %119)
  store i64 %120, ptr %8, align 8, !tbaa !71
  %121 = load i64, ptr %8, align 8, !tbaa !71
  %122 = load i64, ptr %9, align 8, !tbaa !71
  %123 = icmp ne i64 %121, %122
  br i1 %123, label %124, label %131

124:                                              ; preds = %116
  %125 = load ptr, ptr %5, align 8, !tbaa !3
  %126 = getelementptr inbounds nuw %struct.GVJ_s, ptr %125, i32 0, i32 3
  %127 = load ptr, ptr %126, align 8, !tbaa !56
  %128 = getelementptr inbounds nuw %struct.GVCOMMON_s, ptr %127, i32 0, i32 5
  %129 = load ptr, ptr %128, align 8, !tbaa !57
  %130 = load i64, ptr %8, align 8, !tbaa !71
  call void (ptr, ...) %129(ptr noundef @.str.6, i64 noundef %130)
  call void @graphviz_exit(i32 noundef 1) #18
  unreachable

131:                                              ; preds = %116
  br label %132

132:                                              ; preds = %131, %107
  %133 = load i32, ptr %14, align 4, !tbaa !58
  %134 = load ptr, ptr %11, align 8, !tbaa !61
  %135 = getelementptr inbounds nuw %struct.z_stream_s, ptr %134, i32 0, i32 1
  %136 = load i32, ptr %135, align 8, !tbaa !70
  %137 = sub i32 %133, %136
  %138 = zext i32 %137 to i64
  %139 = load i64, ptr %13, align 8, !tbaa !71
  %140 = add i64 %139, %138
  store i64 %140, ptr %13, align 8, !tbaa !71
  call void @llvm.lifetime.end.p0(i64 4, ptr %15) #14
  call void @llvm.lifetime.end.p0(i64 4, ptr %14) #14
  br label %64, !llvm.loop !82

141:                                              ; preds = %68
  call void @llvm.lifetime.end.p0(i64 8, ptr %12) #14
  call void @llvm.lifetime.end.p0(i64 8, ptr %11) #14
  br label %158

142:                                              ; preds = %22
  %143 = load ptr, ptr %5, align 8, !tbaa !3
  %144 = load ptr, ptr %6, align 8, !tbaa !73
  %145 = load i64, ptr %7, align 8, !tbaa !71
  %146 = call i64 @gvwrite_no_z(ptr noundef %143, ptr noundef %144, i64 noundef %145)
  store i64 %146, ptr %8, align 8, !tbaa !71
  %147 = load i64, ptr %8, align 8, !tbaa !71
  %148 = load i64, ptr %7, align 8, !tbaa !71
  %149 = icmp ne i64 %147, %148
  br i1 %149, label %150, label %157

150:                                              ; preds = %142
  %151 = load ptr, ptr %5, align 8, !tbaa !3
  %152 = getelementptr inbounds nuw %struct.GVJ_s, ptr %151, i32 0, i32 3
  %153 = load ptr, ptr %152, align 8, !tbaa !56
  %154 = getelementptr inbounds nuw %struct.GVCOMMON_s, ptr %153, i32 0, i32 5
  %155 = load ptr, ptr %154, align 8, !tbaa !57
  %156 = load i64, ptr %7, align 8, !tbaa !71
  call void (ptr, ...) %155(ptr noundef @.str.6, i64 noundef %156)
  call void @graphviz_exit(i32 noundef 1) #18
  unreachable

157:                                              ; preds = %142
  br label %158

158:                                              ; preds = %157, %141
  %159 = load i64, ptr %7, align 8, !tbaa !71
  store i64 %159, ptr %4, align 8
  store i32 1, ptr %10, align 4
  br label %160

160:                                              ; preds = %158, %21
  call void @llvm.lifetime.end.p0(i64 8, ptr %9) #14
  call void @llvm.lifetime.end.p0(i64 8, ptr %8) #14
  %161 = load i64, ptr %4, align 8
  ret i64 %161
}