; Function Attrs: nounwind uwtable
define noundef i64 @gvwrite(ptr noundef %0, ptr noundef %1, i64 noundef %2) local_unnamed_addr #0 {
  %4 = icmp ne i64 %2, 0
  %5 = icmp ne ptr %1, null
  %or.cond = and i1 %5, %4
  br i1 %or.cond, label %6, label %.loopexit

6:                                                ; preds = %3
  %7 = getelementptr inbounds nuw i8, ptr %0, i64 280
  %8 = load i32, ptr %7, align 8, !tbaa !61
  %9 = and i32 %8, 1024
  %.not = icmp eq i32 %9, 0
  br i1 %.not, label %64, label %10

10:                                               ; preds = %6
  %11 = tail call i64 @deflateBound(ptr noundef nonnull @z_strm, i64 noundef %2) #21
  %12 = load i32, ptr @dfallocated, align 4, !tbaa !59
  %13 = zext i32 %12 to i64
  %14 = icmp ugt i64 %11, %13
  br i1 %14, label %15, label %28

15:                                               ; preds = %10
  %16 = icmp ugt i64 %11, 4294967294
  %17 = trunc i64 %11 to i32
  %18 = add i32 %17, 1
  %19 = select i1 %16, i32 -1, i32 %18
  store i32 %19, ptr @dfallocated, align 4, !tbaa !59
  %20 = load ptr, ptr @df, align 8, !tbaa !71
  %21 = zext i32 %19 to i64
  %22 = tail call ptr @realloc(ptr noundef %20, i64 noundef %21) #24
  store ptr %22, ptr @df, align 8, !tbaa !71
  %.not55 = icmp eq ptr %22, null
  br i1 %.not55, label %23, label %28

23:                                               ; preds = %15
  %24 = getelementptr inbounds nuw i8, ptr %0, i64 24
  %25 = load ptr, ptr %24, align 8, !tbaa !57
  %26 = getelementptr inbounds nuw i8, ptr %25, i64 24
  %27 = load ptr, ptr %26, align 8, !tbaa !58
  tail call void (ptr, ...) %27(ptr noundef nonnull @.str.4) #21
  tail call fastcc void @graphviz_exit() #25
  unreachable

28:                                               ; preds = %15, %10
  %29 = load i64, ptr @crc, align 8, !tbaa !67
  %30 = tail call i64 @crc32_z(i64 noundef %29, ptr noundef nonnull %1, i64 noundef %2) #21
  store i64 %30, ptr @crc, align 8, !tbaa !67
  %.pre65 = load ptr, ptr @df, align 8, !tbaa !71
  br label %31

31:                                               ; preds = %28, %57
  %32 = phi ptr [ %.pre65, %28 ], [ %58, %57 ]
  %.04761 = phi i64 [ 0, %28 ], [ %62, %57 ]
  %33 = getelementptr inbounds nuw i8, ptr %1, i64 %.04761
  store ptr %33, ptr @z_strm, align 8, !tbaa !62
  %34 = sub nuw i64 %2, %.04761
  %35 = tail call i64 @llvm.umin.i64(i64 %34, i64 4294967295)
  %36 = trunc nuw i64 %35 to i32
  store i32 %36, ptr getelementptr inbounds nuw (i8, ptr @z_strm, i64 8), align 8, !tbaa !66
  store ptr %32, ptr getelementptr inbounds nuw (i8, ptr @z_strm, i64 24), align 8, !tbaa !65
  %37 = load i32, ptr @dfallocated, align 4, !tbaa !59
  store i32 %37, ptr getelementptr inbounds nuw (i8, ptr @z_strm, i64 32), align 8, !tbaa !72
  %38 = tail call i32 @deflate(ptr noundef nonnull @z_strm, i32 noundef 0) #21
  %.not56 = icmp eq i32 %38, 0
  br i1 %.not56, label %44, label %39

39:                                               ; preds = %31
  %40 = getelementptr inbounds nuw i8, ptr %0, i64 24
  %41 = load ptr, ptr %40, align 8, !tbaa !57
  %42 = getelementptr inbounds nuw i8, ptr %41, i64 24
  %43 = load ptr, ptr %42, align 8, !tbaa !58
  tail call void (ptr, ...) %43(ptr noundef nonnull @.str.5, i32 noundef %38) #21
  tail call fastcc void @graphviz_exit() #25
  unreachable

44:                                               ; preds = %31
  %45 = load ptr, ptr getelementptr inbounds nuw (i8, ptr @z_strm, i64 24), align 8, !tbaa !65
  %46 = load ptr, ptr @df, align 8, !tbaa !71
  %.not57 = icmp eq ptr %45, %46
  br i1 %.not57, label %57, label %47

47:                                               ; preds = %44
  %48 = ptrtoint ptr %46 to i64
  %49 = ptrtoint ptr %45 to i64
  %50 = sub i64 %49, %48
  %51 = tail call fastcc i64 @gvwrite_no_z(ptr noundef %0, ptr noundef %46, i64 noundef %50)
  %.not58 = icmp eq i64 %51, %50
  %.pre = load ptr, ptr @df, align 8, !tbaa !71
  br i1 %.not58, label %57, label %52

52:                                               ; preds = %47
  %53 = getelementptr inbounds nuw i8, ptr %0, i64 24
  %54 = load ptr, ptr %53, align 8, !tbaa !57
  %55 = getelementptr inbounds nuw i8, ptr %54, i64 24
  %56 = load ptr, ptr %55, align 8, !tbaa !58
  tail call void (ptr, ...) %56(ptr noundef nonnull @.str.6, i64 noundef %51) #21
  tail call fastcc void @graphviz_exit() #25
  unreachable

57:                                               ; preds = %47, %44
  %58 = phi ptr [ %.pre, %47 ], [ %46, %44 ]
  %59 = load i32, ptr getelementptr inbounds nuw (i8, ptr @z_strm, i64 8), align 8, !tbaa !66
  %60 = sub i32 %36, %59
  %61 = zext i32 %60 to i64
  %62 = add i64 %.04761, %61
  %63 = icmp ult i64 %62, %2
  br i1 %63, label %31, label %.loopexit, !llvm.loop !73

64:                                               ; preds = %6
  %65 = tail call fastcc i64 @gvwrite_no_z(ptr noundef nonnull %0, ptr noundef nonnull %1, i64 noundef %2)
  %.not54 = icmp eq i64 %65, %2
  br i1 %.not54, label %.loopexit, label %66

66:                                               ; preds = %64
  %67 = getelementptr inbounds nuw i8, ptr %0, i64 24
  %68 = load ptr, ptr %67, align 8, !tbaa !57
  %69 = getelementptr inbounds nuw i8, ptr %68, i64 24
  %70 = load ptr, ptr %69, align 8, !tbaa !58
  tail call void (ptr, ...) %70(ptr noundef nonnull @.str.6, i64 noundef %2) #21
  tail call fastcc void @graphviz_exit() #25
  unreachable

.loopexit:                                        ; preds = %57, %64, %3
  %.0 = phi i64 [ 0, %3 ], [ %2, %64 ], [ %2, %57 ]
  ret i64 %.0
}